target datalayout = "e-m:e-p270:32:32-p271:32:32-p272:64:64-i64:64-i128:128-f80:128-n8:16:32:64-S128"
target triple = "x86_64-pc-linux-gnu"

@H5G_init_g = external global i8, align 1
@H5_libterm_g = external global i8, align 1
@.str.2 = private unnamed_addr constant [99 x i8] c"generated/home/dtcxzyw/WorkSpace/Projects/compilers/llvm-opt-benchmark/bench/hdf5/hdf5/src/H5Goh.c\00", align 1
@__func__.H5O__group_get_oloc = private unnamed_addr constant [20 x i8] c"H5O__group_get_oloc\00", align 1
@H5E_OHDR_g = external global i64, align 8
@H5E_BADID_g = external global i64, align 8
@.str.10 = private unnamed_addr constant [28 x i8] c"couldn't get object from ID\00", align 1
@H5E_CANTGET_g = external global i64, align 8
@.str.11 = private unnamed_addr constant [42 x i8] c"unable to get object location from object\00", align 1

; Function Attrs: nounwind uwtable
define internal ptr @H5O__group_get_oloc(i64 noundef %0) #0 {
  %2 = alloca i64, align 8
  %3 = alloca ptr, align 8
  %4 = alloca ptr, align 8
  %5 = alloca i8, align 1
  store i64 %0, ptr %2, align 8, !tbaa !11
  call void @llvm.lifetime.start.p0(i64 8, ptr %3) #4
  call void @llvm.lifetime.start.p0(i64 8, ptr %4) #4
  store ptr null, ptr %4, align 8, !tbaa !36
  call void @llvm.lifetime.start.p0(i64 1, ptr %5) #4
  store i8 0, ptr %5, align 1, !tbaa !7
  %6 = load i8, ptr @H5G_init_g, align 1, !tbaa !7, !range !9, !noundef !10
  %7 = trunc i8 %6 to i1
  br i1 %7, label %12, label %8

8:                                                ; preds = %1
  %9 = load i8, ptr @H5_libterm_g, align 1, !tbaa !7, !range !9, !noundef !10
  %10 = trunc i8 %9 to i1
  %11 = xor i1 %10, true
  br label %12

12:                                               ; preds = %8, %1
  %13 = phi i1 [ true, %1 ], [ %11, %8 ]
  %14 = xor i1 %13, true
  %15 = xor i1 %14, true
  %16 = zext i1 %15 to i32
  %17 = sext i32 %16 to i64
  %18 = call i64 @llvm.expect.i64(i64 %17, i64 1)
  %19 = icmp ne i64 %18, 0
  br i1 %19, label %20, label %68

20:                                               ; preds = %12
  %21 = load i64, ptr %2, align 8, !tbaa !11
  %22 = call ptr @H5VL_object(i64 noundef %21)
  store ptr %22, ptr %3, align 8, !tbaa !25
  %23 = icmp eq ptr null, %22
  br i1 %23, label %24, label %43

24:                                               ; preds = %20
  br label %25

25:                                               ; preds = %24
  br label %26

26:                                               ; preds = %25
  br label %27

27:                                               ; preds = %26
  %28 = load i64, ptr @H5E_OHDR_g, align 8, !tbaa !11
  %29 = load i64, ptr @H5E_BADID_g, align 8, !tbaa !11
  %30 = call i32 (ptr, ptr, i32, i64, i64, ptr, ...) @H5E_printf_stack(ptr noundef @.str.2, ptr noundef @__func__.H5O__group_get_oloc, i32 noundef 276, i64 noundef %28, i64 noundef %29, ptr noundef @.str.10)
  br label %31

31:                                               ; preds = %27
  br label %32

32:                                               ; preds = %31
  store i8 1, ptr %5, align 1, !tbaa !7
  %33 = load i8, ptr %5, align 1, !tbaa !7, !range !9, !noundef !10
  %34 = trunc i8 %33 to i1
  %35 = zext i1 %34 to i8
  store i8 %35, ptr %5, align 1, !tbaa !7
  br label %36

36:                                               ; preds = %32
  br label %37

37:                                               ; preds = %36
  br label %38

38:                                               ; preds = %37
  store ptr null, ptr %4, align 8, !tbaa !36
  br label %67

39:                                               ; No predecessors!
  br label %40

40:                                               ; preds = %39
  br label %41

41:                                               ; preds = %40
  br label %42

42:                                               ; preds = %41
  br label %43

43:                                               ; preds = %42, %20
  %44 = load ptr, ptr %3, align 8, !tbaa !25
  %45 = call ptr @H5G_oloc(ptr noundef %44)
  store ptr %45, ptr %4, align 8, !tbaa !36
  %46 = icmp eq ptr null, %45
  br i1 %46, label %47, label %66

47:                                               ; preds = %43
  br label %48

48:                                               ; preds = %47
  br label %49

49:                                               ; preds = %48
  br label %50

50:                                               ; preds = %49
  %51 = load i64, ptr @H5E_OHDR_g, align 8, !tbaa !11
  %52 = load i64, ptr @H5E_CANTGET_g, align 8, !tbaa !11
  %53 = call i32 (ptr, ptr, i32, i64, i64, ptr, ...) @H5E_printf_stack(ptr noundef @.str.2, ptr noundef @__func__.H5O__group_get_oloc, i32 noundef 280, i64 noundef %51, i64 noundef %52, ptr noundef @.str.11)
  br label %54

54:                                               ; preds = %50
  br label %55

55:                                               ; preds = %54
  store i8 1, ptr %5, align 1, !tbaa !7
  %56 = load i8, ptr %5, align 1, !tbaa !7, !range !9, !noundef !10
  %57 = trunc i8 %56 to i1
  %58 = zext i1 %57 to i8
  store i8 %58, ptr %5, align 1, !tbaa !7
  br label %59

59:                                               ; preds = %55
  br label %60

60:                                               ; preds = %59
  br label %61

61:                                               ; preds = %60
  store ptr null, ptr %4, align 8, !tbaa !36
  br label %67

62:                                               ; No predecessors!
  br label %63

63:                                               ; preds = %62
  br label %64

64:                                               ; preds = %63
  br label %65

65:                                               ; preds = %64
  br label %66

66:                                               ; preds = %65, %43
  br label %67

67:                                               ; preds = %66, %61, %38
  br label %68

68:                                               ; preds = %67, %12
  %69 = load ptr, ptr %4, align 8, !tbaa !36
  call void @llvm.lifetime.end.p0(i64 1, ptr %5) #4
  call void @llvm.lifetime.end.p0(i64 8, ptr %4) #4
  call void @llvm.lifetime.end.p0(i64 8, ptr %3) #4
  ret ptr %69
}