; Function Attrs: nounwind uwtable
define internal ptr @H5O__group_get_oloc(i64 noundef %0) #0 {
  %2 = load i8, ptr @H5G_init_g, align 1, !tbaa !3, !range !7, !noundef !8
  %3 = trunc nuw i8 %2 to i1
  %4 = load i8, ptr @H5_libterm_g, align 1, !range !7
  %5 = trunc nuw i8 %4 to i1
  %6 = xor i1 %5, true
  %7 = select i1 %3, i1 true, i1 %6
  br i1 %7, label %8, label %22, !prof !9

8:                                                ; preds = %1
  %9 = tail call ptr @H5VL_object(i64 noundef %0) #3
  %10 = icmp eq ptr %9, null
  br i1 %10, label %11, label %15

11:                                               ; preds = %8
  %12 = load i64, ptr @H5E_OHDR_g, align 8, !tbaa !10
  %13 = load i64, ptr @H5E_BADID_g, align 8, !tbaa !10
  %14 = tail call i32 (ptr, ptr, i32, i64, i64, ptr, ...) @H5E_printf_stack(ptr noundef nonnull @.str.2, ptr noundef nonnull @__func__.H5O__group_get_oloc, i32 noundef 276, i64 noundef %12, i64 noundef %13, ptr noundef nonnull @.str.10) #3
  br label %22

15:                                               ; preds = %8
  %16 = tail call ptr @H5G_oloc(ptr noundef nonnull %9) #3
  %17 = icmp eq ptr %16, null
  br i1 %17, label %18, label %22

18:                                               ; preds = %15
  %19 = load i64, ptr @H5E_OHDR_g, align 8, !tbaa !10
  %20 = load i64, ptr @H5E_CANTGET_g, align 8, !tbaa !10
  %21 = tail call i32 (ptr, ptr, i32, i64, i64, ptr, ...) @H5E_printf_stack(ptr noundef nonnull @.str.2, ptr noundef nonnull @__func__.H5O__group_get_oloc, i32 noundef 280, i64 noundef %19, i64 noundef %20, ptr noundef nonnull @.str.11) #3
  br label %22

22:                                               ; preds = %11, %18, %15, %1
  %.0 = phi ptr [ null, %11 ], [ null, %18 ], [ %16, %15 ], [ null, %1 ]
  ret ptr %.0
}